target datalayout = "e-m:e-p270:32:32-p271:32:32-p272:64:64-i64:64-i128:128-f80:128-n8:16:32:64-S128"
target triple = "x86_64-pc-linux-gnu"

@.str.4 = private unnamed_addr constant [23 x i8] c"out of memory in 'new'\00", align 1

; Function Attrs: nounwind uwtable
define internal ptr @mi_get_new_handler() #3 {
  %1 = call ptr @_ZSt15get_new_handlerv() #14
  ret ptr %1
}

; Function Attrs: nounwind uwtable
define internal zeroext i1 @mi_try_new_handler(i1 noundef zeroext %0) #3 {
  %2 = alloca i1, align 1
  %3 = alloca i8, align 1
  %4 = alloca ptr, align 8
  %5 = alloca i32, align 4
  %6 = zext i1 %0 to i8
  store i8 %6, ptr %3, align 1, !tbaa !11
  call void @llvm.lifetime.start.p0(i64 8, ptr %4) #15
  %7 = call ptr @mi_get_new_handler() #14
  store ptr %7, ptr %4, align 8, !tbaa !7
  %8 = load ptr, ptr %4, align 8, !tbaa !7
  %9 = icmp eq ptr %8, null
  br i1 %9, label %10, label %15

10:                                               ; preds = %1
  call void (i32, ptr, ...) @_mi_error_message(i32 noundef 12, ptr noundef @.str.4) #14
  %11 = load i8, ptr %3, align 1, !tbaa !11, !range !15, !noundef !16
  %12 = trunc i8 %11 to i1
  br i1 %12, label %14, label %13

13:                                               ; preds = %10
  call void @abort() #17
  unreachable

14:                                               ; preds = %10
  store i1 false, ptr %2, align 1
  store i32 1, ptr %5, align 4
  br label %17

15:                                               ; preds = %1
  %16 = load ptr, ptr %4, align 8, !tbaa !7
  call void %16() #14
  store i1 true, ptr %2, align 1
  store i32 1, ptr %5, align 4
  br label %17

17:                                               ; preds = %15, %14
  call void @llvm.lifetime.end.p0(i64 8, ptr %4) #15
  %18 = load i1, ptr %2, align 1
  ret i1 %18
}

; Function Attrs: nounwind uwtable
define hidden noalias ptr @mi_new_aligned_nothrow(i64 noundef %0, i64 noundef %1) #3 {
  %3 = alloca i64, align 8
  %4 = alloca i64, align 8
  %5 = alloca ptr, align 8
  store i64 %0, ptr %3, align 8, !tbaa !3
  store i64 %1, ptr %4, align 8, !tbaa !3
  call void @llvm.lifetime.start.p0(i64 8, ptr %5) #15
  br label %6

6:                                                ; preds = %15, %2
  %7 = load i64, ptr %3, align 8, !tbaa !3
  %8 = load i64, ptr %4, align 8, !tbaa !3
  %9 = call noalias ptr @mi_malloc_aligned(i64 noundef %7, i64 noundef %8) #14
  store ptr %9, ptr %5, align 8, !tbaa !7
  br label %10

10:                                               ; preds = %6
  %11 = load ptr, ptr %5, align 8, !tbaa !7
  %12 = icmp eq ptr %11, null
  br i1 %12, label %13, label %15

13:                                               ; preds = %10
  %14 = call zeroext i1 @mi_try_new_handler(i1 noundef zeroext true) #14
  br label %15

15:                                               ; preds = %13, %10
  %16 = phi i1 [ false, %10 ], [ %14, %13 ]
  br i1 %16, label %6, label %17, !llvm.loop !24

17:                                               ; preds = %15
  %18 = load ptr, ptr %5, align 8, !tbaa !7
  call void @llvm.lifetime.end.p0(i64 8, ptr %5) #15
  ret ptr %18
}

; Function Attrs: nounwind uwtable
define ptr @_ZnwmSt11align_val_tRKSt9nothrow_t(i64 noundef %0, i64 noundef %1, ptr noundef %2) #3 {
  %4 = alloca i64, align 8
  %5 = alloca i64, align 8
  %6 = alloca ptr, align 8
  store i64 %0, ptr %4, align 8, !tbaa !3
  store i64 %1, ptr %5, align 8, !tbaa !3
  store ptr %2, ptr %6, align 8, !tbaa !7
  %7 = load i64, ptr %4, align 8, !tbaa !3
  %8 = load i64, ptr %5, align 8, !tbaa !3
  %9 = call noalias ptr @mi_new_aligned_nothrow(i64 noundef %7, i64 noundef %8) #14
  ret ptr %9
}